
simon.elf:     file format elf32-avr

Sections:
Idx Name          Size      VMA       LMA       File off  Algn
  0 .text         0000053a  00000000  00000000  00000094  2**1
                  CONTENTS, ALLOC, LOAD, READONLY, CODE
  1 .data         00000006  00800060  0000053a  000005ce  2**0
                  CONTENTS, ALLOC, LOAD, DATA
  2 .bss          00000064  00800066  00800066  000005d4  2**0
                  ALLOC
  3 .comment      00000030  00000000  00000000  000005d4  2**0
                  CONTENTS, READONLY
  4 .note.gnu.avr.deviceinfo 0000003c  00000000  00000000  00000604  2**2
                  CONTENTS, READONLY
  5 .debug_aranges 00000098  00000000  00000000  00000640  2**0
                  CONTENTS, READONLY, DEBUGGING
  6 .debug_info   00000ced  00000000  00000000  000006d8  2**0
                  CONTENTS, READONLY, DEBUGGING
  7 .debug_abbrev 00000818  00000000  00000000  000013c5  2**0
                  CONTENTS, READONLY, DEBUGGING
  8 .debug_line   00000a88  00000000  00000000  00001bdd  2**0
                  CONTENTS, READONLY, DEBUGGING
  9 .debug_frame  00000134  00000000  00000000  00002668  2**2
                  CONTENTS, READONLY, DEBUGGING
 10 .debug_str    00006b1b  00000000  00000000  0000279c  2**0
                  CONTENTS, READONLY, DEBUGGING
 11 .debug_loc    0000060e  00000000  00000000  000092b7  2**0
                  CONTENTS, READONLY, DEBUGGING
 12 .debug_ranges 000000c0  00000000  00000000  000098c5  2**0
                  CONTENTS, READONLY, DEBUGGING
 13 .debug_macro  0000291c  00000000  00000000  00009985  2**0
                  CONTENTS, READONLY, DEBUGGING

Disassembly of section .text:

00000000 <__vectors>:
   0:	0c 94 2a 00 	jmp	0x54	; 0x54 <__ctors_end>
   4:	0c 94 47 00 	jmp	0x8e	; 0x8e <__bad_interrupt>
   8:	0c 94 47 00 	jmp	0x8e	; 0x8e <__bad_interrupt>
   c:	0c 94 47 00 	jmp	0x8e	; 0x8e <__bad_interrupt>
  10:	0c 94 47 00 	jmp	0x8e	; 0x8e <__bad_interrupt>
  14:	0c 94 47 00 	jmp	0x8e	; 0x8e <__bad_interrupt>
  18:	0c 94 47 00 	jmp	0x8e	; 0x8e <__bad_interrupt>
  1c:	0c 94 47 00 	jmp	0x8e	; 0x8e <__bad_interrupt>
  20:	0c 94 47 00 	jmp	0x8e	; 0x8e <__bad_interrupt>
  24:	0c 94 47 00 	jmp	0x8e	; 0x8e <__bad_interrupt>
  28:	0c 94 47 00 	jmp	0x8e	; 0x8e <__bad_interrupt>
  2c:	0c 94 47 00 	jmp	0x8e	; 0x8e <__bad_interrupt>
  30:	0c 94 47 00 	jmp	0x8e	; 0x8e <__bad_interrupt>
  34:	0c 94 47 00 	jmp	0x8e	; 0x8e <__bad_interrupt>
  38:	0c 94 47 00 	jmp	0x8e	; 0x8e <__bad_interrupt>
  3c:	0c 94 47 00 	jmp	0x8e	; 0x8e <__bad_interrupt>
  40:	0c 94 47 00 	jmp	0x8e	; 0x8e <__bad_interrupt>
  44:	0c 94 47 00 	jmp	0x8e	; 0x8e <__bad_interrupt>
  48:	0c 94 47 00 	jmp	0x8e	; 0x8e <__bad_interrupt>
  4c:	0c 94 47 00 	jmp	0x8e	; 0x8e <__bad_interrupt>
  50:	0c 94 47 00 	jmp	0x8e	; 0x8e <__bad_interrupt>

00000054 <__ctors_end>:
  54:	11 24       	eor	r1, r1
  56:	1f be       	out	0x3f, r1	; 63
  58:	cf e5       	ldi	r28, 0x5F	; 95
  5a:	d8 e0       	ldi	r29, 0x08	; 8
  5c:	de bf       	out	0x3e, r29	; 62
  5e:	cd bf       	out	0x3d, r28	; 61

00000060 <__do_copy_data>:
  60:	10 e0       	ldi	r17, 0x00	; 0
  62:	a0 e6       	ldi	r26, 0x60	; 96
  64:	b0 e0       	ldi	r27, 0x00	; 0
  66:	ea e3       	ldi	r30, 0x3A	; 58
  68:	f5 e0       	ldi	r31, 0x05	; 5
  6a:	02 c0       	rjmp	.+4      	; 0x70 <__do_copy_data+0x10>
  6c:	05 90       	lpm	r0, Z+
  6e:	0d 92       	st	X+, r0
  70:	a6 36       	cpi	r26, 0x66	; 102
  72:	b1 07       	cpc	r27, r17
  74:	d9 f7       	brne	.-10     	; 0x6c <__do_copy_data+0xc>

00000076 <__do_clear_bss>:
  76:	20 e0       	ldi	r18, 0x00	; 0
  78:	a6 e6       	ldi	r26, 0x66	; 102
  7a:	b0 e0       	ldi	r27, 0x00	; 0
  7c:	01 c0       	rjmp	.+2      	; 0x80 <.do_clear_bss_start>

0000007e <.do_clear_bss_loop>:
  7e:	1d 92       	st	X+, r1

00000080 <.do_clear_bss_start>:
  80:	aa 3c       	cpi	r26, 0xCA	; 202
  82:	b2 07       	cpc	r27, r18
  84:	e1 f7       	brne	.-8      	; 0x7e <.do_clear_bss_loop>
  86:	0e 94 49 00 	call	0x92	; 0x92 <main>
  8a:	0c 94 9b 02 	jmp	0x536	; 0x536 <_exit>

0000008e <__bad_interrupt>:
  8e:	0c 94 00 00 	jmp	0	; 0x0 <__vectors>

00000092 <main>:
#include "simon.h"
uint8_t level_=1;

int main(void)
{
	setupleds();
  92:	0e 94 8a 00 	call	0x114	; 0x114 <setupleds>
	setupbuttons();
  96:	0e 94 8f 00 	call	0x11e	; 0x11e <setupbuttons>
	setup_buzzer();
  9a:	0e 94 98 00 	call	0x130	; 0x130 <setup_buzzer>
	
	
	
	srand(3);
  9e:	83 e0       	ldi	r24, 0x03	; 3
  a0:	90 e0       	ldi	r25, 0x00	; 0
  a2:	0e 94 2d 02 	call	0x45a	; 0x45a <srand>
	DDRA=0xff;
  a6:	8f ef       	ldi	r24, 0xFF	; 255
  a8:	8a bb       	out	0x1a, r24	; 26
			

			if(inputValue==0)
			{
				
				PORTA=0xff;
  aa:	df ef       	ldi	r29, 0xFF	; 255
			level_++;
		}
		else if (gameover == 1)
		{
			failure_indicator();
			level_=1;
  ac:	11 e0       	ldi	r17, 0x01	; 1
	DDRA=0xff;

	while (1)
	{
		
		generate_random_sequence(level_);
  ae:	80 91 64 00 	lds	r24, 0x0064	; 0x800064 <level_>
  b2:	0e 94 9a 00 	call	0x134	; 0x134 <generate_random_sequence>
		displaythesequence(level_);
  b6:	80 91 64 00 	lds	r24, 0x0064	; 0x800064 <level_>
  ba:	0e 94 9d 01 	call	0x33a	; 0x33a <displaythesequence>
		
		uint8_t gameover=0;
		for (uint8_t i=0;i<level_;i++)
  be:	80 91 64 00 	lds	r24, 0x0064	; 0x800064 <level_>
  c2:	88 23       	and	r24, r24
  c4:	d1 f0       	breq	.+52     	; 0xfa <main+0x68>
  c6:	c0 e0       	ldi	r28, 0x00	; 0
		{
			uint8_t inputValue= readplayer();
  c8:	0e 94 dd 00 	call	0x1ba	; 0x1ba <readplayer>
			

			if(inputValue==0)
  cc:	81 11       	cpse	r24, r1
  ce:	01 c0       	rjmp	.+2      	; 0xd2 <main+0x40>
			{
				
				PORTA=0xff;
  d0:	db bb       	out	0x1b, r29	; 27
	#else
		//round up by default
		__ticks_dc = (uint32_t)(ceil(fabs(__tmp)));
	#endif

	__builtin_avr_delay_cycles(__ticks_dc);
  d2:	2f ef       	ldi	r18, 0xFF	; 255
  d4:	34 e3       	ldi	r19, 0x34	; 52
  d6:	9c e0       	ldi	r25, 0x0C	; 12
  d8:	21 50       	subi	r18, 0x01	; 1
  da:	30 40       	sbci	r19, 0x00	; 0
  dc:	90 40       	sbci	r25, 0x00	; 0
  de:	e1 f7       	brne	.-8      	; 0xd8 <main+0x46>
  e0:	00 c0       	rjmp	.+0      	; 0xe2 <main+0x50>
  e2:	00 00       	nop
			}

			_delay_ms(500);

			bool result=checksequence(i ,inputValue);
  e4:	68 2f       	mov	r22, r24
  e6:	8c 2f       	mov	r24, r28
  e8:	0e 94 ba 00 	call	0x174	; 0x174 <checksequence>
			
			if (result==0)
  ec:	88 23       	and	r24, r24
  ee:	69 f0       	breq	.+26     	; 0x10a <main+0x78>
		
		generate_random_sequence(level_);
		displaythesequence(level_);
		
		uint8_t gameover=0;
		for (uint8_t i=0;i<level_;i++)
  f0:	cf 5f       	subi	r28, 0xFF	; 255
  f2:	80 91 64 00 	lds	r24, 0x0064	; 0x800064 <level_>
  f6:	c8 17       	cp	r28, r24
  f8:	38 f3       	brcs	.-50     	; 0xc8 <main+0x36>
			}
			
		}
		if (gameover == 0)
		{
			success_indicator();
  fa:	0e 94 1d 01 	call	0x23a	; 0x23a <success_indicator>
			level_++;
  fe:	80 91 64 00 	lds	r24, 0x0064	; 0x800064 <level_>
 102:	8f 5f       	subi	r24, 0xFF	; 255
 104:	80 93 64 00 	sts	0x0064, r24	; 0x800064 <level_>
 108:	d2 cf       	rjmp	.-92     	; 0xae <main+0x1c>
		}
		else if (gameover == 1)
		{
			failure_indicator();
 10a:	0e 94 60 01 	call	0x2c0	; 0x2c0 <failure_indicator>
			level_=1;
 10e:	10 93 64 00 	sts	0x0064, r17	; 0x800064 <level_>
 112:	cd cf       	rjmp	.-102    	; 0xae <main+0x1c>

00000114 <setupleds>:
void reset (void)
{
	setBit(PORTB,0);
	setBit(PORTB,1);
	setBit(PORTB,2);
	setBit(PORTB,3);
 114:	b8 9a       	sbi	0x17, 0	; 23
 116:	b9 9a       	sbi	0x17, 1	; 23
 118:	ba 9a       	sbi	0x17, 2	; 23
 11a:	bb 9a       	sbi	0x17, 3	; 23
 11c:	08 95       	ret

0000011e <setupbuttons>:
 11e:	a0 98       	cbi	0x14, 0	; 20
 120:	a8 9a       	sbi	0x15, 0	; 21
 122:	a1 98       	cbi	0x14, 1	; 20
 124:	a9 9a       	sbi	0x15, 1	; 21
 126:	a2 98       	cbi	0x14, 2	; 20
 128:	aa 9a       	sbi	0x15, 2	; 21
 12a:	a3 98       	cbi	0x14, 3	; 20
 12c:	ab 9a       	sbi	0x15, 3	; 21
 12e:	08 95       	ret

00000130 <setup_buzzer>:
 130:	bc 9a       	sbi	0x17, 4	; 23
 132:	08 95       	ret

00000134 <generate_random_sequence>:
 134:	0f 93       	push	r16
 136:	1f 93       	push	r17
 138:	cf 93       	push	r28
 13a:	df 93       	push	r29
 13c:	88 23       	and	r24, r24
 13e:	a9 f0       	breq	.+42     	; 0x16a <generate_random_sequence+0x36>
 140:	c6 e6       	ldi	r28, 0x66	; 102
 142:	d0 e0       	ldi	r29, 0x00	; 0
 144:	81 50       	subi	r24, 0x01	; 1
 146:	08 2f       	mov	r16, r24
 148:	10 e0       	ldi	r17, 0x00	; 0
 14a:	09 59       	subi	r16, 0x99	; 153
 14c:	1f 4f       	sbci	r17, 0xFF	; 255
 14e:	0e 94 28 02 	call	0x450	; 0x450 <rand>
 152:	83 70       	andi	r24, 0x03	; 3
 154:	90 78       	andi	r25, 0x80	; 128
 156:	99 23       	and	r25, r25
 158:	24 f4       	brge	.+8      	; 0x162 <generate_random_sequence+0x2e>
 15a:	01 97       	sbiw	r24, 0x01	; 1
 15c:	8c 6f       	ori	r24, 0xFC	; 252
 15e:	9f 6f       	ori	r25, 0xFF	; 255
 160:	01 96       	adiw	r24, 0x01	; 1
 162:	89 93       	st	Y+, r24
 164:	c0 17       	cp	r28, r16
 166:	d1 07       	cpc	r29, r17
 168:	91 f7       	brne	.-28     	; 0x14e <generate_random_sequence+0x1a>
 16a:	df 91       	pop	r29
 16c:	cf 91       	pop	r28
 16e:	1f 91       	pop	r17
 170:	0f 91       	pop	r16
 172:	08 95       	ret

00000174 <checksequence>:
 174:	e8 2f       	mov	r30, r24
 176:	f0 e0       	ldi	r31, 0x00	; 0
 178:	ea 59       	subi	r30, 0x9A	; 154
 17a:	ff 4f       	sbci	r31, 0xFF	; 255
 17c:	81 e0       	ldi	r24, 0x01	; 1
 17e:	90 81       	ld	r25, Z
 180:	96 13       	cpse	r25, r22
 182:	80 e0       	ldi	r24, 0x00	; 0
 184:	08 95       	ret

00000186 <button_press_buzz>:
}

void button_press_buzz(uint8_t player_input)
{
	
	while(readBit(PINC,player_input)==0)
 186:	23 b3       	in	r18, 0x13	; 19
 188:	30 e0       	ldi	r19, 0x00	; 0
 18a:	08 2e       	mov	r0, r24
 18c:	02 c0       	rjmp	.+4      	; 0x192 <button_press_buzz+0xc>
 18e:	35 95       	asr	r19
 190:	27 95       	ror	r18
 192:	0a 94       	dec	r0
 194:	e2 f7       	brpl	.-8      	; 0x18e <button_press_buzz+0x8>
 196:	20 fd       	sbrc	r18, 0
 198:	0e c0       	rjmp	.+28     	; 0x1b6 <button_press_buzz+0x30>
 19a:	21 e0       	ldi	r18, 0x01	; 1
 19c:	30 e0       	ldi	r19, 0x00	; 0
 19e:	02 c0       	rjmp	.+4      	; 0x1a4 <button_press_buzz+0x1e>
 1a0:	22 0f       	add	r18, r18
 1a2:	33 1f       	adc	r19, r19
 1a4:	8a 95       	dec	r24
 1a6:	e2 f7       	brpl	.-8      	; 0x1a0 <button_press_buzz+0x1a>
	{
		setBit(PORTB,4);
 1a8:	c4 9a       	sbi	0x18, 4	; 24
}

void button_press_buzz(uint8_t player_input)
{
	
	while(readBit(PINC,player_input)==0)
 1aa:	83 b3       	in	r24, 0x13	; 19
 1ac:	90 e0       	ldi	r25, 0x00	; 0
 1ae:	82 23       	and	r24, r18
 1b0:	93 23       	and	r25, r19
 1b2:	89 2b       	or	r24, r25
 1b4:	c9 f3       	breq	.-14     	; 0x1a8 <button_press_buzz+0x22>
	{
		setBit(PORTB,4);
	}
	 clearBit(PORTB, 4);
 1b6:	c4 98       	cbi	0x18, 4	; 24
 1b8:	08 95       	ret

000001ba <readplayer>:
uint8_t readplayer()
{
	uint8_t player_input=7;
	while(1)
	{
		if(readBit(PINC,0) == 0 )
 1ba:	98 99       	sbic	0x13, 0	; 19
 1bc:	0e c0       	rjmp	.+28     	; 0x1da <readplayer+0x20>
		{
			player_input=0;
			button_press_buzz(player_input);
 1be:	80 e0       	ldi	r24, 0x00	; 0
 1c0:	0e 94 c3 00 	call	0x186	; 0x186 <button_press_buzz>
 1c4:	2f e7       	ldi	r18, 0x7F	; 127
 1c6:	88 e3       	ldi	r24, 0x38	; 56
 1c8:	91 e0       	ldi	r25, 0x01	; 1
 1ca:	21 50       	subi	r18, 0x01	; 1
 1cc:	80 40       	sbci	r24, 0x00	; 0
 1ce:	90 40       	sbci	r25, 0x00	; 0
 1d0:	e1 f7       	brne	.-8      	; 0x1ca <readplayer+0x10>
 1d2:	00 c0       	rjmp	.+0      	; 0x1d4 <readplayer+0x1a>
 1d4:	00 00       	nop
	uint8_t player_input=7;
	while(1)
	{
		if(readBit(PINC,0) == 0 )
		{
			player_input=0;
 1d6:	80 e0       	ldi	r24, 0x00	; 0
 1d8:	08 95       	ret
			button_press_buzz(player_input);
			_delay_ms(50);
			break;
		}
		else if(readBit(PINC,1) == 0 )
 1da:	99 99       	sbic	0x13, 1	; 19
 1dc:	0e c0       	rjmp	.+28     	; 0x1fa <readplayer+0x40>
		{
			player_input=1;
			button_press_buzz(player_input);
 1de:	81 e0       	ldi	r24, 0x01	; 1
 1e0:	0e 94 c3 00 	call	0x186	; 0x186 <button_press_buzz>
 1e4:	2f e7       	ldi	r18, 0x7F	; 127
 1e6:	88 e3       	ldi	r24, 0x38	; 56
 1e8:	91 e0       	ldi	r25, 0x01	; 1
 1ea:	21 50       	subi	r18, 0x01	; 1
 1ec:	80 40       	sbci	r24, 0x00	; 0
 1ee:	90 40       	sbci	r25, 0x00	; 0
 1f0:	e1 f7       	brne	.-8      	; 0x1ea <readplayer+0x30>
 1f2:	00 c0       	rjmp	.+0      	; 0x1f4 <readplayer+0x3a>
 1f4:	00 00       	nop
			_delay_ms(50);
			break;
		}
		else if(readBit(PINC,1) == 0 )
		{
			player_input=1;
 1f6:	81 e0       	ldi	r24, 0x01	; 1
 1f8:	08 95       	ret
			button_press_buzz(player_input);
			_delay_ms(50);
			break;
		}
		else if(readBit(PINC,2) == 0 )
 1fa:	9a 99       	sbic	0x13, 2	; 19
 1fc:	0e c0       	rjmp	.+28     	; 0x21a <readplayer+0x60>
		{
			player_input=2;
			button_press_buzz(player_input);
 1fe:	82 e0       	ldi	r24, 0x02	; 2
 200:	0e 94 c3 00 	call	0x186	; 0x186 <button_press_buzz>
 204:	2f e7       	ldi	r18, 0x7F	; 127
 206:	88 e3       	ldi	r24, 0x38	; 56
 208:	91 e0       	ldi	r25, 0x01	; 1
 20a:	21 50       	subi	r18, 0x01	; 1
 20c:	80 40       	sbci	r24, 0x00	; 0
 20e:	90 40       	sbci	r25, 0x00	; 0
 210:	e1 f7       	brne	.-8      	; 0x20a <readplayer+0x50>
 212:	00 c0       	rjmp	.+0      	; 0x214 <readplayer+0x5a>
 214:	00 00       	nop
			_delay_ms(50);
			break;
		}
		else if(readBit(PINC,2) == 0 )
		{
			player_input=2;
 216:	82 e0       	ldi	r24, 0x02	; 2
 218:	08 95       	ret
			button_press_buzz(player_input);
			_delay_ms(50);
			break;
		}
		else if(readBit(PINC,3) == 0 )
 21a:	9b 99       	sbic	0x13, 3	; 19
 21c:	ce cf       	rjmp	.-100    	; 0x1ba <readplayer>
		{
			player_input=3;
			button_press_buzz(player_input);
 21e:	83 e0       	ldi	r24, 0x03	; 3
 220:	0e 94 c3 00 	call	0x186	; 0x186 <button_press_buzz>
 224:	2f e7       	ldi	r18, 0x7F	; 127
 226:	88 e3       	ldi	r24, 0x38	; 56
 228:	91 e0       	ldi	r25, 0x01	; 1
 22a:	21 50       	subi	r18, 0x01	; 1
 22c:	80 40       	sbci	r24, 0x00	; 0
 22e:	90 40       	sbci	r25, 0x00	; 0
 230:	e1 f7       	brne	.-8      	; 0x22a <readplayer+0x70>
 232:	00 c0       	rjmp	.+0      	; 0x234 <readplayer+0x7a>
 234:	00 00       	nop
			_delay_ms(50);
			break;
		}
		else if(readBit(PINC,3) == 0 )
		{
			player_input=3;
 236:	83 e0       	ldi	r24, 0x03	; 3
			_delay_ms(50);
			break;
		}
	}
	return player_input;
}
 238:	08 95       	ret

0000023a <success_indicator>:
 23a:	e3 e0       	ldi	r30, 0x03	; 3
	for(uint8_t i=0 ; i<3 ;i++)
	{
		
		for(uint8_t j=0 ; j<=4 ;j++)
		{   
			setBit(PORTB,j);
 23c:	61 e0       	ldi	r22, 0x01	; 1
 23e:	70 e0       	ldi	r23, 0x00	; 0
 240:	34 c0       	rjmp	.+104    	; 0x2aa <success_indicator+0x70>
 242:	48 b3       	in	r20, 0x18	; 24
 244:	9b 01       	movw	r18, r22
 246:	08 2e       	mov	r0, r24
 248:	02 c0       	rjmp	.+4      	; 0x24e <success_indicator+0x14>
 24a:	22 0f       	add	r18, r18
 24c:	33 1f       	adc	r19, r19
 24e:	0a 94       	dec	r0
 250:	e2 f7       	brpl	.-8      	; 0x24a <success_indicator+0x10>
 252:	24 2b       	or	r18, r20
 254:	28 bb       	out	0x18, r18	; 24
 256:	01 96       	adiw	r24, 0x01	; 1
{
	
	for(uint8_t i=0 ; i<3 ;i++)
	{
		
		for(uint8_t j=0 ; j<=4 ;j++)
 258:	85 30       	cpi	r24, 0x05	; 5
 25a:	91 05       	cpc	r25, r1
 25c:	91 f7       	brne	.-28     	; 0x242 <success_indicator+0x8>
 25e:	2f ef       	ldi	r18, 0xFF	; 255
 260:	80 e7       	ldi	r24, 0x70	; 112
 262:	92 e0       	ldi	r25, 0x02	; 2
 264:	21 50       	subi	r18, 0x01	; 1
 266:	80 40       	sbci	r24, 0x00	; 0
 268:	90 40       	sbci	r25, 0x00	; 0
 26a:	e1 f7       	brne	.-8      	; 0x264 <success_indicator+0x2a>
 26c:	00 c0       	rjmp	.+0      	; 0x26e <success_indicator+0x34>
 26e:	00 00       	nop
 270:	80 e0       	ldi	r24, 0x00	; 0
 272:	90 e0       	ldi	r25, 0x00	; 0
		}
		_delay_ms(100);
		
		for(uint8_t j=0 ; j<=4 ;j++)
		{
			clearBit(PORTB,j);
 274:	38 b3       	in	r19, 0x18	; 24
 276:	ab 01       	movw	r20, r22
 278:	08 2e       	mov	r0, r24
 27a:	02 c0       	rjmp	.+4      	; 0x280 <success_indicator+0x46>
 27c:	44 0f       	add	r20, r20
 27e:	55 1f       	adc	r21, r21
 280:	0a 94       	dec	r0
 282:	e2 f7       	brpl	.-8      	; 0x27c <success_indicator+0x42>
 284:	24 2f       	mov	r18, r20
 286:	20 95       	com	r18
 288:	23 23       	and	r18, r19
 28a:	28 bb       	out	0x18, r18	; 24
 28c:	01 96       	adiw	r24, 0x01	; 1
		{   
			setBit(PORTB,j);
		}
		_delay_ms(100);
		
		for(uint8_t j=0 ; j<=4 ;j++)
 28e:	85 30       	cpi	r24, 0x05	; 5
 290:	91 05       	cpc	r25, r1
 292:	81 f7       	brne	.-32     	; 0x274 <success_indicator+0x3a>
 294:	2f ef       	ldi	r18, 0xFF	; 255
 296:	80 e7       	ldi	r24, 0x70	; 112
 298:	92 e0       	ldi	r25, 0x02	; 2
 29a:	21 50       	subi	r18, 0x01	; 1
 29c:	80 40       	sbci	r24, 0x00	; 0
 29e:	90 40       	sbci	r25, 0x00	; 0
 2a0:	e1 f7       	brne	.-8      	; 0x29a <success_indicator+0x60>
 2a2:	00 c0       	rjmp	.+0      	; 0x2a4 <success_indicator+0x6a>
 2a4:	00 00       	nop
 2a6:	e1 50       	subi	r30, 0x01	; 1


void success_indicator(void)
{
	
	for(uint8_t i=0 ; i<3 ;i++)
 2a8:	19 f0       	breq	.+6      	; 0x2b0 <success_indicator+0x76>
			 
}


void success_indicator(void)
{
 2aa:	80 e0       	ldi	r24, 0x00	; 0
 2ac:	90 e0       	ldi	r25, 0x00	; 0
 2ae:	c9 cf       	rjmp	.-110    	; 0x242 <success_indicator+0x8>
			clearBit(PORTB,j);
		}
		_delay_ms(100);
	}
	
	if(blink_time>=50 )
 2b0:	80 91 65 00 	lds	r24, 0x0065	; 0x800065 <blink_time>
 2b4:	82 33       	cpi	r24, 0x32	; 50
 2b6:	18 f0       	brcs	.+6      	; 0x2be <success_indicator+0x84>
	{
		blink_time =blink_time -50 ;
 2b8:	82 53       	subi	r24, 0x32	; 50
 2ba:	80 93 65 00 	sts	0x0065, r24	; 0x800065 <blink_time>
 2be:	08 95       	ret

000002c0 <failure_indicator>:
	}
}


void failure_indicator(void)
{
 2c0:	80 e0       	ldi	r24, 0x00	; 0
 2c2:	90 e0       	ldi	r25, 0x00	; 0
		
		for(uint8_t j=0 ; j<=4 ;j++)
		{
			setBit(PORTB,j);
 2c4:	61 e0       	ldi	r22, 0x01	; 1
 2c6:	70 e0       	ldi	r23, 0x00	; 0
 2c8:	48 b3       	in	r20, 0x18	; 24
 2ca:	9b 01       	movw	r18, r22
 2cc:	08 2e       	mov	r0, r24
 2ce:	02 c0       	rjmp	.+4      	; 0x2d4 <failure_indicator+0x14>
 2d0:	22 0f       	add	r18, r18
 2d2:	33 1f       	adc	r19, r19
 2d4:	0a 94       	dec	r0
 2d6:	e2 f7       	brpl	.-8      	; 0x2d0 <failure_indicator+0x10>
 2d8:	24 2b       	or	r18, r20
 2da:	28 bb       	out	0x18, r18	; 24
 2dc:	01 96       	adiw	r24, 0x01	; 1


void failure_indicator(void)
{
		
		for(uint8_t j=0 ; j<=4 ;j++)
 2de:	85 30       	cpi	r24, 0x05	; 5
 2e0:	91 05       	cpc	r25, r1
 2e2:	91 f7       	brne	.-28     	; 0x2c8 <failure_indicator+0x8>
 2e4:	2f ef       	ldi	r18, 0xFF	; 255
 2e6:	84 e3       	ldi	r24, 0x34	; 52
 2e8:	9c e0       	ldi	r25, 0x0C	; 12
 2ea:	21 50       	subi	r18, 0x01	; 1
 2ec:	80 40       	sbci	r24, 0x00	; 0
 2ee:	90 40       	sbci	r25, 0x00	; 0
 2f0:	e1 f7       	brne	.-8      	; 0x2ea <failure_indicator+0x2a>
 2f2:	00 c0       	rjmp	.+0      	; 0x2f4 <failure_indicator+0x34>
 2f4:	00 00       	nop
 2f6:	80 e0       	ldi	r24, 0x00	; 0
 2f8:	90 e0       	ldi	r25, 0x00	; 0
		}
		_delay_ms(500);
		
		for(uint8_t j=0 ; j<=4 ;j++)
		{
			clearBit(PORTB,j);
 2fa:	61 e0       	ldi	r22, 0x01	; 1
 2fc:	70 e0       	ldi	r23, 0x00	; 0
 2fe:	38 b3       	in	r19, 0x18	; 24
 300:	ab 01       	movw	r20, r22
 302:	08 2e       	mov	r0, r24
 304:	02 c0       	rjmp	.+4      	; 0x30a <failure_indicator+0x4a>
 306:	44 0f       	add	r20, r20
 308:	55 1f       	adc	r21, r21
 30a:	0a 94       	dec	r0
 30c:	e2 f7       	brpl	.-8      	; 0x306 <failure_indicator+0x46>
 30e:	24 2f       	mov	r18, r20
 310:	20 95       	com	r18
 312:	23 23       	and	r18, r19
 314:	28 bb       	out	0x18, r18	; 24
 316:	01 96       	adiw	r24, 0x01	; 1
		{
			setBit(PORTB,j);
		}
		_delay_ms(500);
		
		for(uint8_t j=0 ; j<=4 ;j++)
 318:	85 30       	cpi	r24, 0x05	; 5
 31a:	91 05       	cpc	r25, r1
 31c:	81 f7       	brne	.-32     	; 0x2fe <failure_indicator+0x3e>
		{
			clearBit(PORTB,j);
		}
}
 31e:	08 95       	ret

00000320 <costum_delay>:

void costum_delay(uint8_t _time)
{
	for(uint8_t i=0 ; i<_time ; i++)
 320:	88 23       	and	r24, r24
 322:	51 f0       	breq	.+20     	; 0x338 <costum_delay+0x18>
 324:	90 e0       	ldi	r25, 0x00	; 0
 326:	ef ec       	ldi	r30, 0xCF	; 207
 328:	f7 e0       	ldi	r31, 0x07	; 7
 32a:	31 97       	sbiw	r30, 0x01	; 1
 32c:	f1 f7       	brne	.-4      	; 0x32a <costum_delay+0xa>
 32e:	00 c0       	rjmp	.+0      	; 0x330 <costum_delay+0x10>
 330:	00 00       	nop
 332:	9f 5f       	subi	r25, 0xFF	; 255
 334:	89 13       	cpse	r24, r25
 336:	f7 cf       	rjmp	.-18     	; 0x326 <costum_delay+0x6>
 338:	08 95       	ret

0000033a <displaythesequence>:
	}
}


void displaythesequence(uint8_t level)
{
 33a:	cf 92       	push	r12
 33c:	df 92       	push	r13
 33e:	ef 92       	push	r14
 340:	ff 92       	push	r15
 342:	0f 93       	push	r16
 344:	1f 93       	push	r17
 346:	cf 93       	push	r28
 348:	df 93       	push	r29

	for(unsigned int i =0; i < level ; i++)
 34a:	90 e0       	ldi	r25, 0x00	; 0
 34c:	00 97       	sbiw	r24, 0x00	; 0
 34e:	59 f1       	breq	.+86     	; 0x3a6 <displaythesequence+0x6c>
 350:	c6 e6       	ldi	r28, 0x66	; 102
 352:	d0 e0       	ldi	r29, 0x00	; 0
 354:	9c 01       	movw	r18, r24
 356:	2a 59       	subi	r18, 0x9A	; 154
 358:	3f 4f       	sbci	r19, 0xFF	; 255
 35a:	79 01       	movw	r14, r18
	{
		setBit(PORTB,sequence[i]);
 35c:	01 e0       	ldi	r16, 0x01	; 1
 35e:	10 e0       	ldi	r17, 0x00	; 0
 360:	28 b3       	in	r18, 0x18	; 24
 362:	6e 01       	movw	r12, r28
 364:	c8 01       	movw	r24, r16
 366:	09 90       	ld	r0, Y+
 368:	02 c0       	rjmp	.+4      	; 0x36e <displaythesequence+0x34>
 36a:	88 0f       	add	r24, r24
 36c:	99 1f       	adc	r25, r25
 36e:	0a 94       	dec	r0
 370:	e2 f7       	brpl	.-8      	; 0x36a <displaythesequence+0x30>
 372:	82 2b       	or	r24, r18
 374:	88 bb       	out	0x18, r24	; 24
		costum_delay(blink_time);
 376:	80 91 65 00 	lds	r24, 0x0065	; 0x800065 <blink_time>
 37a:	0e 94 90 01 	call	0x320	; 0x320 <costum_delay>
		clearBit(PORTB,sequence[i]);
 37e:	98 b3       	in	r25, 0x18	; 24
 380:	98 01       	movw	r18, r16
 382:	f6 01       	movw	r30, r12
 384:	00 80       	ld	r0, Z
 386:	02 c0       	rjmp	.+4      	; 0x38c <displaythesequence+0x52>
 388:	22 0f       	add	r18, r18
 38a:	33 1f       	adc	r19, r19
 38c:	0a 94       	dec	r0
 38e:	e2 f7       	brpl	.-8      	; 0x388 <displaythesequence+0x4e>
 390:	82 2f       	mov	r24, r18
 392:	80 95       	com	r24
 394:	89 23       	and	r24, r25
 396:	88 bb       	out	0x18, r24	; 24
		costum_delay(blink_time);
 398:	80 91 65 00 	lds	r24, 0x0065	; 0x800065 <blink_time>
 39c:	0e 94 90 01 	call	0x320	; 0x320 <costum_delay>


void displaythesequence(uint8_t level)
{

	for(unsigned int i =0; i < level ; i++)
 3a0:	ce 15       	cp	r28, r14
 3a2:	df 05       	cpc	r29, r15
 3a4:	e9 f6       	brne	.-70     	; 0x360 <displaythesequence+0x26>
		costum_delay(blink_time);
		clearBit(PORTB,sequence[i]);
		costum_delay(blink_time);
		
	}
}
 3a6:	df 91       	pop	r29
 3a8:	cf 91       	pop	r28
 3aa:	1f 91       	pop	r17
 3ac:	0f 91       	pop	r16
 3ae:	ff 90       	pop	r15
 3b0:	ef 90       	pop	r14
 3b2:	df 90       	pop	r13
 3b4:	cf 90       	pop	r12
 3b6:	08 95       	ret

000003b8 <do_rand>:
 3b8:	8f 92       	push	r8
 3ba:	9f 92       	push	r9
 3bc:	af 92       	push	r10
 3be:	bf 92       	push	r11
 3c0:	cf 92       	push	r12
 3c2:	df 92       	push	r13
 3c4:	ef 92       	push	r14
 3c6:	ff 92       	push	r15
 3c8:	cf 93       	push	r28
 3ca:	df 93       	push	r29
 3cc:	ec 01       	movw	r28, r24
 3ce:	68 81       	ld	r22, Y
 3d0:	79 81       	ldd	r23, Y+1	; 0x01
 3d2:	8a 81       	ldd	r24, Y+2	; 0x02
 3d4:	9b 81       	ldd	r25, Y+3	; 0x03
 3d6:	61 15       	cp	r22, r1
 3d8:	71 05       	cpc	r23, r1
 3da:	81 05       	cpc	r24, r1
 3dc:	91 05       	cpc	r25, r1
 3de:	21 f4       	brne	.+8      	; 0x3e8 <do_rand+0x30>
 3e0:	64 e2       	ldi	r22, 0x24	; 36
 3e2:	79 ed       	ldi	r23, 0xD9	; 217
 3e4:	8b e5       	ldi	r24, 0x5B	; 91
 3e6:	97 e0       	ldi	r25, 0x07	; 7
 3e8:	2d e1       	ldi	r18, 0x1D	; 29
 3ea:	33 ef       	ldi	r19, 0xF3	; 243
 3ec:	41 e0       	ldi	r20, 0x01	; 1
 3ee:	50 e0       	ldi	r21, 0x00	; 0
 3f0:	0e 94 38 02 	call	0x470	; 0x470 <__divmodsi4>
 3f4:	49 01       	movw	r8, r18
 3f6:	5a 01       	movw	r10, r20
 3f8:	9b 01       	movw	r18, r22
 3fa:	ac 01       	movw	r20, r24
 3fc:	a7 ea       	ldi	r26, 0xA7	; 167
 3fe:	b1 e4       	ldi	r27, 0x41	; 65
 400:	0e 94 57 02 	call	0x4ae	; 0x4ae <__muluhisi3>
 404:	6b 01       	movw	r12, r22
 406:	7c 01       	movw	r14, r24
 408:	ac ee       	ldi	r26, 0xEC	; 236
 40a:	b4 ef       	ldi	r27, 0xF4	; 244
 40c:	a5 01       	movw	r20, r10
 40e:	94 01       	movw	r18, r8
 410:	0e 94 65 02 	call	0x4ca	; 0x4ca <__mulohisi3>
 414:	dc 01       	movw	r26, r24
 416:	cb 01       	movw	r24, r22
 418:	8c 0d       	add	r24, r12
 41a:	9d 1d       	adc	r25, r13
 41c:	ae 1d       	adc	r26, r14
 41e:	bf 1d       	adc	r27, r15
 420:	b7 ff       	sbrs	r27, 7
 422:	03 c0       	rjmp	.+6      	; 0x42a <__LOCK_REGION_LENGTH__+0x2a>
 424:	01 97       	sbiw	r24, 0x01	; 1
 426:	a1 09       	sbc	r26, r1
 428:	b0 48       	sbci	r27, 0x80	; 128
 42a:	88 83       	st	Y, r24
 42c:	99 83       	std	Y+1, r25	; 0x01
 42e:	aa 83       	std	Y+2, r26	; 0x02
 430:	bb 83       	std	Y+3, r27	; 0x03
 432:	9f 77       	andi	r25, 0x7F	; 127
 434:	df 91       	pop	r29
 436:	cf 91       	pop	r28
 438:	ff 90       	pop	r15
 43a:	ef 90       	pop	r14
 43c:	df 90       	pop	r13
 43e:	cf 90       	pop	r12
 440:	bf 90       	pop	r11
 442:	af 90       	pop	r10
 444:	9f 90       	pop	r9
 446:	8f 90       	pop	r8
 448:	08 95       	ret

0000044a <rand_r>:
 44a:	0e 94 dc 01 	call	0x3b8	; 0x3b8 <do_rand>
 44e:	08 95       	ret

00000450 <rand>:
 450:	80 e6       	ldi	r24, 0x60	; 96
 452:	90 e0       	ldi	r25, 0x00	; 0
 454:	0e 94 dc 01 	call	0x3b8	; 0x3b8 <do_rand>
 458:	08 95       	ret

0000045a <srand>:
 45a:	a0 e0       	ldi	r26, 0x00	; 0
 45c:	b0 e0       	ldi	r27, 0x00	; 0
 45e:	80 93 60 00 	sts	0x0060, r24	; 0x800060 <__DATA_REGION_ORIGIN__>
 462:	90 93 61 00 	sts	0x0061, r25	; 0x800061 <__DATA_REGION_ORIGIN__+0x1>
 466:	a0 93 62 00 	sts	0x0062, r26	; 0x800062 <__DATA_REGION_ORIGIN__+0x2>
 46a:	b0 93 63 00 	sts	0x0063, r27	; 0x800063 <__DATA_REGION_ORIGIN__+0x3>
 46e:	08 95       	ret

00000470 <__divmodsi4>:
 470:	05 2e       	mov	r0, r21
 472:	97 fb       	bst	r25, 7
 474:	1e f4       	brtc	.+6      	; 0x47c <__divmodsi4+0xc>
 476:	00 94       	com	r0
 478:	0e 94 4f 02 	call	0x49e	; 0x49e <__negsi2>
 47c:	57 fd       	sbrc	r21, 7
 47e:	07 d0       	rcall	.+14     	; 0x48e <__divmodsi4_neg2>
 480:	0e 94 6a 02 	call	0x4d4	; 0x4d4 <__udivmodsi4>
 484:	07 fc       	sbrc	r0, 7
 486:	03 d0       	rcall	.+6      	; 0x48e <__divmodsi4_neg2>
 488:	4e f4       	brtc	.+18     	; 0x49c <__divmodsi4_exit>
 48a:	0c 94 4f 02 	jmp	0x49e	; 0x49e <__negsi2>

0000048e <__divmodsi4_neg2>:
 48e:	50 95       	com	r21
 490:	40 95       	com	r20
 492:	30 95       	com	r19
 494:	21 95       	neg	r18
 496:	3f 4f       	sbci	r19, 0xFF	; 255
 498:	4f 4f       	sbci	r20, 0xFF	; 255
 49a:	5f 4f       	sbci	r21, 0xFF	; 255

0000049c <__divmodsi4_exit>:
 49c:	08 95       	ret

0000049e <__negsi2>:
 49e:	90 95       	com	r25
 4a0:	80 95       	com	r24
 4a2:	70 95       	com	r23
 4a4:	61 95       	neg	r22
 4a6:	7f 4f       	sbci	r23, 0xFF	; 255
 4a8:	8f 4f       	sbci	r24, 0xFF	; 255
 4aa:	9f 4f       	sbci	r25, 0xFF	; 255
 4ac:	08 95       	ret

000004ae <__muluhisi3>:
 4ae:	0e 94 8c 02 	call	0x518	; 0x518 <__umulhisi3>
 4b2:	a5 9f       	mul	r26, r21
 4b4:	90 0d       	add	r25, r0
 4b6:	b4 9f       	mul	r27, r20
 4b8:	90 0d       	add	r25, r0
 4ba:	a4 9f       	mul	r26, r20
 4bc:	80 0d       	add	r24, r0
 4be:	91 1d       	adc	r25, r1
 4c0:	11 24       	eor	r1, r1
 4c2:	08 95       	ret

000004c4 <__mulshisi3>:
 4c4:	b7 ff       	sbrs	r27, 7
 4c6:	0c 94 57 02 	jmp	0x4ae	; 0x4ae <__muluhisi3>

000004ca <__mulohisi3>:
 4ca:	0e 94 57 02 	call	0x4ae	; 0x4ae <__muluhisi3>
 4ce:	82 1b       	sub	r24, r18
 4d0:	93 0b       	sbc	r25, r19
 4d2:	08 95       	ret

000004d4 <__udivmodsi4>:
 4d4:	a1 e2       	ldi	r26, 0x21	; 33
 4d6:	1a 2e       	mov	r1, r26
 4d8:	aa 1b       	sub	r26, r26
 4da:	bb 1b       	sub	r27, r27
 4dc:	fd 01       	movw	r30, r26
 4de:	0d c0       	rjmp	.+26     	; 0x4fa <__udivmodsi4_ep>

000004e0 <__udivmodsi4_loop>:
 4e0:	aa 1f       	adc	r26, r26
 4e2:	bb 1f       	adc	r27, r27
 4e4:	ee 1f       	adc	r30, r30
 4e6:	ff 1f       	adc	r31, r31
 4e8:	a2 17       	cp	r26, r18
 4ea:	b3 07       	cpc	r27, r19
 4ec:	e4 07       	cpc	r30, r20
 4ee:	f5 07       	cpc	r31, r21
 4f0:	20 f0       	brcs	.+8      	; 0x4fa <__udivmodsi4_ep>
 4f2:	a2 1b       	sub	r26, r18
 4f4:	b3 0b       	sbc	r27, r19
 4f6:	e4 0b       	sbc	r30, r20
 4f8:	f5 0b       	sbc	r31, r21

000004fa <__udivmodsi4_ep>:
 4fa:	66 1f       	adc	r22, r22
 4fc:	77 1f       	adc	r23, r23
 4fe:	88 1f       	adc	r24, r24
 500:	99 1f       	adc	r25, r25
 502:	1a 94       	dec	r1
 504:	69 f7       	brne	.-38     	; 0x4e0 <__udivmodsi4_loop>
 506:	60 95       	com	r22
 508:	70 95       	com	r23
 50a:	80 95       	com	r24
 50c:	90 95       	com	r25
 50e:	9b 01       	movw	r18, r22
 510:	ac 01       	movw	r20, r24
 512:	bd 01       	movw	r22, r26
 514:	cf 01       	movw	r24, r30
 516:	08 95       	ret

00000518 <__umulhisi3>:
 518:	a2 9f       	mul	r26, r18
 51a:	b0 01       	movw	r22, r0
 51c:	b3 9f       	mul	r27, r19
 51e:	c0 01       	movw	r24, r0
 520:	a3 9f       	mul	r26, r19
 522:	70 0d       	add	r23, r0
 524:	81 1d       	adc	r24, r1
 526:	11 24       	eor	r1, r1
 528:	91 1d       	adc	r25, r1
 52a:	b2 9f       	mul	r27, r18
 52c:	70 0d       	add	r23, r0
 52e:	81 1d       	adc	r24, r1
 530:	11 24       	eor	r1, r1
 532:	91 1d       	adc	r25, r1
 534:	08 95       	ret

00000536 <_exit>:
 536:	f8 94       	cli

00000538 <__stop_program>:
 538:	ff cf       	rjmp	.-2      	; 0x538 <__stop_program>
